target datalayout = "e-m:e-p270:32:32-p271:32:32-p272:64:64-i64:64-i128:128-f80:128-n8:16:32:64-S128"
target triple = "x86_64-pc-linux-gnu"

%struct.ssl_excert_st = type { i32, ptr, i32, ptr, ptr, ptr, ptr, ptr, i32, ptr, ptr }

@bio_err = external global ptr, align 8
@.str.26 = private unnamed_addr constant [27 x i8] c"../openssl/apps/lib/s_cb.c\00", align 1
@.str.88 = private unnamed_addr constant [31 x i8] c" %s: Error initialising xcert\0A\00", align 1
@.str.89 = private unnamed_addr constant [24 x i8] c"%s: Error adding xcert\0A\00", align 1
@.str.90 = private unnamed_addr constant [27 x i8] c"%s: Key already specified\0A\00", align 1
@.str.91 = private unnamed_addr constant [29 x i8] c"%s: Chain already specified\0A\00", align 1
@.str.270 = private unnamed_addr constant [13 x i8] c"prepend cert\00", align 1

; Function Attrs: nounwind uwtable
define void @ssl_excert_free(ptr noundef %0) #0 {
  %2 = alloca ptr, align 8
  %3 = alloca ptr, align 8
  %4 = alloca i32, align 4
  store ptr %0, ptr %2, align 8, !tbaa !68
  call void @llvm.lifetime.start.p0(i64 8, ptr %3) #10
  %5 = load ptr, ptr %2, align 8, !tbaa !68
  %6 = icmp eq ptr %5, null
  br i1 %6, label %7, label %8

7:                                                ; preds = %1
  store i32 1, ptr %4, align 4
  br label %28

8:                                                ; preds = %1
  br label %9

9:                                                ; preds = %12, %8
  %10 = load ptr, ptr %2, align 8, !tbaa !68
  %11 = icmp ne ptr %10, null
  br i1 %11, label %12, label %27

12:                                               ; preds = %9
  %13 = load ptr, ptr %2, align 8, !tbaa !68
  %14 = getelementptr inbounds nuw %struct.ssl_excert_st, ptr %13, i32 0, i32 5
  %15 = load ptr, ptr %14, align 8, !tbaa !73
  call void @X509_free(ptr noundef %15)
  %16 = load ptr, ptr %2, align 8, !tbaa !68
  %17 = getelementptr inbounds nuw %struct.ssl_excert_st, ptr %16, i32 0, i32 6
  %18 = load ptr, ptr %17, align 8, !tbaa !74
  call void @EVP_PKEY_free(ptr noundef %18)
  %19 = load ptr, ptr %2, align 8, !tbaa !68
  %20 = getelementptr inbounds nuw %struct.ssl_excert_st, ptr %19, i32 0, i32 7
  %21 = load ptr, ptr %20, align 8, !tbaa !75
  call void @OSSL_STACK_OF_X509_free(ptr noundef %21)
  %22 = load ptr, ptr %2, align 8, !tbaa !68
  store ptr %22, ptr %3, align 8, !tbaa !68
  %23 = load ptr, ptr %2, align 8, !tbaa !68
  %24 = getelementptr inbounds nuw %struct.ssl_excert_st, ptr %23, i32 0, i32 9
  %25 = load ptr, ptr %24, align 8, !tbaa !70
  store ptr %25, ptr %2, align 8, !tbaa !68
  %26 = load ptr, ptr %3, align 8, !tbaa !68
  call void @CRYPTO_free(ptr noundef %26, ptr noundef @.str.26, i32 noundef 1092)
  br label %9, !llvm.loop !79

27:                                               ; preds = %9
  store i32 0, ptr %4, align 4
  br label %28

28:                                               ; preds = %27, %7
  call void @llvm.lifetime.end.p0(i64 8, ptr %3) #10
  %29 = load i32, ptr %4, align 4
  switch i32 %29, label %31 [
    i32 0, label %30
    i32 1, label %30
  ]

30:                                               ; preds = %28, %28
  ret void

31:                                               ; preds = %28
  unreachable
}

; Function Attrs: nounwind uwtable
define internal i32 @ssl_excert_prepend(ptr noundef %0) #0 {
  %2 = alloca ptr, align 8
  %3 = alloca ptr, align 8
  store ptr %0, ptr %2, align 8, !tbaa !80
  call void @llvm.lifetime.start.p0(i64 8, ptr %3) #10
  %4 = call ptr @app_malloc(i64 noundef 88, ptr noundef @.str.270)
  store ptr %4, ptr %3, align 8, !tbaa !68
  %5 = load ptr, ptr %3, align 8, !tbaa !68
  call void @llvm.memset.p0.i64(ptr align 8 %5, i8 0, i64 88, i1 false)
  %6 = load ptr, ptr %2, align 8, !tbaa !80
  %7 = load ptr, ptr %6, align 8, !tbaa !68
  %8 = load ptr, ptr %3, align 8, !tbaa !68
  %9 = getelementptr inbounds nuw %struct.ssl_excert_st, ptr %8, i32 0, i32 9
  store ptr %7, ptr %9, align 8, !tbaa !70
  %10 = load ptr, ptr %3, align 8, !tbaa !68
  %11 = load ptr, ptr %2, align 8, !tbaa !80
  store ptr %10, ptr %11, align 8, !tbaa !68
  %12 = load ptr, ptr %3, align 8, !tbaa !68
  %13 = getelementptr inbounds nuw %struct.ssl_excert_st, ptr %12, i32 0, i32 9
  %14 = load ptr, ptr %13, align 8, !tbaa !70
  %15 = icmp ne ptr %14, null
  br i1 %15, label %16, label %36

16:                                               ; preds = %1
  %17 = load ptr, ptr %3, align 8, !tbaa !68
  %18 = getelementptr inbounds nuw %struct.ssl_excert_st, ptr %17, i32 0, i32 9
  %19 = load ptr, ptr %18, align 8, !tbaa !70
  %20 = getelementptr inbounds nuw %struct.ssl_excert_st, ptr %19, i32 0, i32 0
  %21 = load i32, ptr %20, align 8, !tbaa !83
  %22 = load ptr, ptr %3, align 8, !tbaa !68
  %23 = getelementptr inbounds nuw %struct.ssl_excert_st, ptr %22, i32 0, i32 0
  store i32 %21, ptr %23, align 8, !tbaa !83
  %24 = load ptr, ptr %3, align 8, !tbaa !68
  %25 = getelementptr inbounds nuw %struct.ssl_excert_st, ptr %24, i32 0, i32 9
  %26 = load ptr, ptr %25, align 8, !tbaa !70
  %27 = getelementptr inbounds nuw %struct.ssl_excert_st, ptr %26, i32 0, i32 2
  %28 = load i32, ptr %27, align 8, !tbaa !85
  %29 = load ptr, ptr %3, align 8, !tbaa !68
  %30 = getelementptr inbounds nuw %struct.ssl_excert_st, ptr %29, i32 0, i32 2
  store i32 %28, ptr %30, align 8, !tbaa !85
  %31 = load ptr, ptr %3, align 8, !tbaa !68
  %32 = load ptr, ptr %3, align 8, !tbaa !68
  %33 = getelementptr inbounds nuw %struct.ssl_excert_st, ptr %32, i32 0, i32 9
  %34 = load ptr, ptr %33, align 8, !tbaa !70
  %35 = getelementptr inbounds nuw %struct.ssl_excert_st, ptr %34, i32 0, i32 10
  store ptr %31, ptr %35, align 8, !tbaa !77
  br label %41

36:                                               ; preds = %1
  %37 = load ptr, ptr %3, align 8, !tbaa !68
  %38 = getelementptr inbounds nuw %struct.ssl_excert_st, ptr %37, i32 0, i32 0
  store i32 32773, ptr %38, align 8, !tbaa !83
  %39 = load ptr, ptr %3, align 8, !tbaa !68
  %40 = getelementptr inbounds nuw %struct.ssl_excert_st, ptr %39, i32 0, i32 2
  store i32 32773, ptr %40, align 8, !tbaa !85
  br label %41

41:                                               ; preds = %36, %16
  call void @llvm.lifetime.end.p0(i64 8, ptr %3) #10
  ret i32 1
}

; Function Attrs: nounwind uwtable
define i32 @args_excert(i32 noundef %0, ptr noundef %1) #0 {
  %3 = alloca i32, align 4
  %4 = alloca i32, align 4
  %5 = alloca ptr, align 8
  %6 = alloca ptr, align 8
  %7 = alloca i32, align 4
  store i32 %0, ptr %4, align 4, !tbaa !3
  store ptr %1, ptr %5, align 8, !tbaa !80
  call void @llvm.lifetime.start.p0(i64 8, ptr %6) #10
  %8 = load ptr, ptr %5, align 8, !tbaa !80
  %9 = load ptr, ptr %8, align 8, !tbaa !68
  store ptr %9, ptr %6, align 8, !tbaa !68
  %10 = load ptr, ptr %6, align 8, !tbaa !68
  %11 = icmp eq ptr %10, null
  br i1 %11, label %12, label %22

12:                                               ; preds = %2
  %13 = call i32 @ssl_excert_prepend(ptr noundef %6)
  %14 = icmp ne i32 %13, 0
  br i1 %14, label %19, label %15

15:                                               ; preds = %12
  %16 = load ptr, ptr @bio_err, align 8, !tbaa !14
  %17 = call ptr @opt_getprog()
  %18 = call i32 (ptr, ptr, ...) @BIO_printf(ptr noundef %16, ptr noundef @.str.88, ptr noundef %17)
  br label %89

19:                                               ; preds = %12
  %20 = load ptr, ptr %6, align 8, !tbaa !68
  %21 = load ptr, ptr %5, align 8, !tbaa !80
  store ptr %20, ptr %21, align 8, !tbaa !68
  br label %22

22:                                               ; preds = %19, %2
  %23 = load i32, ptr %4, align 4, !tbaa !3
  switch i32 %23, label %88 [
    i32 1000, label %24
    i32 1007, label %24
    i32 1002, label %25
    i32 1001, label %43
    i32 1003, label %56
    i32 1004, label %69
    i32 1005, label %72
    i32 1006, label %80
  ]

24:                                               ; preds = %22, %22
  store i32 0, ptr %3, align 4
  store i32 1, ptr %7, align 4
  br label %93

25:                                               ; preds = %22
  %26 = load ptr, ptr %6, align 8, !tbaa !68
  %27 = getelementptr inbounds nuw %struct.ssl_excert_st, ptr %26, i32 0, i32 1
  %28 = load ptr, ptr %27, align 8, !tbaa !82
  %29 = icmp ne ptr %28, null
  br i1 %29, label %30, label %37

30:                                               ; preds = %25
  %31 = call i32 @ssl_excert_prepend(ptr noundef %6)
  %32 = icmp ne i32 %31, 0
  br i1 %32, label %37, label %33

33:                                               ; preds = %30
  %34 = load ptr, ptr @bio_err, align 8, !tbaa !14
  %35 = call ptr @opt_getprog()
  %36 = call i32 (ptr, ptr, ...) @BIO_printf(ptr noundef %34, ptr noundef @.str.89, ptr noundef %35)
  br label %89

37:                                               ; preds = %30, %25
  %38 = load ptr, ptr %6, align 8, !tbaa !68
  %39 = load ptr, ptr %5, align 8, !tbaa !80
  store ptr %38, ptr %39, align 8, !tbaa !68
  %40 = call ptr @opt_arg()
  %41 = load ptr, ptr %6, align 8, !tbaa !68
  %42 = getelementptr inbounds nuw %struct.ssl_excert_st, ptr %41, i32 0, i32 1
  store ptr %40, ptr %42, align 8, !tbaa !82
  br label %88

43:                                               ; preds = %22
  %44 = load ptr, ptr %6, align 8, !tbaa !68
  %45 = getelementptr inbounds nuw %struct.ssl_excert_st, ptr %44, i32 0, i32 3
  %46 = load ptr, ptr %45, align 8, !tbaa !84
  %47 = icmp ne ptr %46, null
  br i1 %47, label %48, label %52

48:                                               ; preds = %43
  %49 = load ptr, ptr @bio_err, align 8, !tbaa !14
  %50 = call ptr @opt_getprog()
  %51 = call i32 (ptr, ptr, ...) @BIO_printf(ptr noundef %49, ptr noundef @.str.90, ptr noundef %50)
  br label %89

52:                                               ; preds = %43
  %53 = call ptr @opt_arg()
  %54 = load ptr, ptr %6, align 8, !tbaa !68
  %55 = getelementptr inbounds nuw %struct.ssl_excert_st, ptr %54, i32 0, i32 3
  store ptr %53, ptr %55, align 8, !tbaa !84
  br label %88

56:                                               ; preds = %22
  %57 = load ptr, ptr %6, align 8, !tbaa !68
  %58 = getelementptr inbounds nuw %struct.ssl_excert_st, ptr %57, i32 0, i32 4
  %59 = load ptr, ptr %58, align 8, !tbaa !86
  %60 = icmp ne ptr %59, null
  br i1 %60, label %61, label %65

61:                                               ; preds = %56
  %62 = load ptr, ptr @bio_err, align 8, !tbaa !14
  %63 = call ptr @opt_getprog()
  %64 = call i32 (ptr, ptr, ...) @BIO_printf(ptr noundef %62, ptr noundef @.str.91, ptr noundef %63)
  br label %89

65:                                               ; preds = %56
  %66 = call ptr @opt_arg()
  %67 = load ptr, ptr %6, align 8, !tbaa !68
  %68 = getelementptr inbounds nuw %struct.ssl_excert_st, ptr %67, i32 0, i32 4
  store ptr %66, ptr %68, align 8, !tbaa !86
  br label %88

69:                                               ; preds = %22
  %70 = load ptr, ptr %6, align 8, !tbaa !68
  %71 = getelementptr inbounds nuw %struct.ssl_excert_st, ptr %70, i32 0, i32 8
  store i32 1, ptr %71, align 8, !tbaa !76
  br label %88

72:                                               ; preds = %22
  %73 = call ptr @opt_arg()
  %74 = load ptr, ptr %6, align 8, !tbaa !68
  %75 = getelementptr inbounds nuw %struct.ssl_excert_st, ptr %74, i32 0, i32 0
  %76 = call i32 @opt_format(ptr noundef %73, i64 noundef 4094, ptr noundef %75)
  %77 = icmp ne i32 %76, 0
  br i1 %77, label %79, label %78

78:                                               ; preds = %72
  store i32 0, ptr %3, align 4
  store i32 1, ptr %7, align 4
  br label %93

79:                                               ; preds = %72
  br label %88

80:                                               ; preds = %22
  %81 = call ptr @opt_arg()
  %82 = load ptr, ptr %6, align 8, !tbaa !68
  %83 = getelementptr inbounds nuw %struct.ssl_excert_st, ptr %82, i32 0, i32 2
  %84 = call i32 @opt_format(ptr noundef %81, i64 noundef 4094, ptr noundef %83)
  %85 = icmp ne i32 %84, 0
  br i1 %85, label %87, label %86

86:                                               ; preds = %80
  store i32 0, ptr %3, align 4
  store i32 1, ptr %7, align 4
  br label %93

87:                                               ; preds = %80
  br label %88

88:                                               ; preds = %22, %87, %79, %69, %65, %52, %37
  store i32 1, ptr %3, align 4
  store i32 1, ptr %7, align 4
  br label %93

89:                                               ; preds = %61, %48, %33, %15
  %90 = load ptr, ptr @bio_err, align 8, !tbaa !14
  call void @ERR_print_errors(ptr noundef %90)
  %91 = load ptr, ptr %6, align 8, !tbaa !68
  call void @ssl_excert_free(ptr noundef %91)
  %92 = load ptr, ptr %5, align 8, !tbaa !80
  store ptr null, ptr %92, align 8, !tbaa !68
  store i32 0, ptr %3, align 4
  store i32 1, ptr %7, align 4
  br label %93

93:                                               ; preds = %89, %88, %86, %78, %24
  call void @llvm.lifetime.end.p0(i64 8, ptr %6) #10
  %94 = load i32, ptr %3, align 4
  ret i32 %94
}