; Function Attrs: nounwind uwtable
define range(i32 0, 2) i32 @args_excert(i32 noundef %0, ptr noundef captures(none) %1) local_unnamed_addr #0 {
  %3 = load ptr, ptr %1, align 8, !tbaa !60
  %4 = icmp eq ptr %3, null
  br i1 %4, label %ssl_excert_prepend.exit, label %7

ssl_excert_prepend.exit:                          ; preds = %2
  %5 = tail call ptr @app_malloc(i64 noundef 88, ptr noundef nonnull @.str.270) #6
  tail call void @llvm.memset.p0.i64(ptr noundef nonnull align 8 dereferenceable(88) %5, i8 0, i64 88, i1 false)
  store i32 32773, ptr %5, align 8, !tbaa !62
  %6 = getelementptr inbounds nuw i8, ptr %5, i64 16
  store i32 32773, ptr %6, align 8, !tbaa !64
  store ptr %5, ptr %1, align 8, !tbaa !60
  br label %7

7:                                                ; preds = %ssl_excert_prepend.exit, %2
  %.027 = phi ptr [ %5, %ssl_excert_prepend.exit ], [ %3, %2 ]
  switch i32 %0, label %40 [
    i32 1000, label %54
    i32 1007, label %54
    i32 1002, label %8
    i32 1001, label %21
    i32 1003, label %26
    i32 1004, label %31
    i32 1005, label %33
    i32 1006, label %36
  ]

8:                                                ; preds = %7
  %9 = getelementptr inbounds nuw i8, ptr %.027, i64 8
  %10 = load ptr, ptr %9, align 8, !tbaa !61
  %.not8 = icmp eq ptr %10, null
  br i1 %.not8, label %18, label %ssl_excert_prepend.exit12

ssl_excert_prepend.exit12:                        ; preds = %8
  %11 = tail call ptr @app_malloc(i64 noundef 88, ptr noundef nonnull @.str.270) #6
  tail call void @llvm.memset.p0.i64(ptr noundef nonnull align 8 dereferenceable(88) %11, i8 0, i64 88, i1 false)
  %12 = getelementptr inbounds nuw i8, ptr %11, i64 72
  store ptr %.027, ptr %12, align 8, !tbaa !46
  %13 = load i32, ptr %.027, align 8, !tbaa !62
  %14 = getelementptr inbounds nuw i8, ptr %.027, i64 16
  %15 = load i32, ptr %14, align 8, !tbaa !64
  %16 = getelementptr inbounds nuw i8, ptr %.027, i64 80
  store ptr %11, ptr %16, align 8, !tbaa !57
  store i32 %13, ptr %11, align 8, !tbaa !62
  %17 = getelementptr inbounds nuw i8, ptr %11, i64 16
  store i32 %15, ptr %17, align 8, !tbaa !64
  br label %18

18:                                               ; preds = %ssl_excert_prepend.exit12, %8
  %.1 = phi ptr [ %.027, %8 ], [ %11, %ssl_excert_prepend.exit12 ]
  store ptr %.1, ptr %1, align 8, !tbaa !60
  %19 = tail call ptr @opt_arg() #6
  %20 = getelementptr inbounds nuw i8, ptr %.1, i64 8
  store ptr %19, ptr %20, align 8, !tbaa !61
  br label %40

21:                                               ; preds = %7
  %22 = getelementptr inbounds nuw i8, ptr %.027, i64 24
  %23 = load ptr, ptr %22, align 8, !tbaa !63
  %.not7 = icmp eq ptr %23, null
  br i1 %.not7, label %24, label %41

24:                                               ; preds = %21
  %25 = tail call ptr @opt_arg() #6
  store ptr %25, ptr %22, align 8, !tbaa !63
  br label %40

26:                                               ; preds = %7
  %27 = getelementptr inbounds nuw i8, ptr %.027, i64 32
  %28 = load ptr, ptr %27, align 8, !tbaa !65
  %.not6 = icmp eq ptr %28, null
  br i1 %.not6, label %29, label %41

29:                                               ; preds = %26
  %30 = tail call ptr @opt_arg() #6
  store ptr %30, ptr %27, align 8, !tbaa !65
  br label %40

31:                                               ; preds = %7
  %32 = getelementptr inbounds nuw i8, ptr %.027, i64 64
  store i32 1, ptr %32, align 8, !tbaa !56
  br label %40

33:                                               ; preds = %7
  %34 = tail call ptr @opt_arg() #6
  %35 = tail call i32 @opt_format(ptr noundef %34, i64 noundef 4094, ptr noundef nonnull %.027) #6
  %.not5 = icmp eq i32 %35, 0
  br i1 %.not5, label %54, label %40

36:                                               ; preds = %7
  %37 = tail call ptr @opt_arg() #6
  %38 = getelementptr inbounds nuw i8, ptr %.027, i64 16
  %39 = tail call i32 @opt_format(ptr noundef %37, i64 noundef 4094, ptr noundef nonnull %38) #6
  %.not = icmp eq i32 %39, 0
  br i1 %.not, label %54, label %40

40:                                               ; preds = %36, %33, %31, %29, %24, %18, %7
  br label %54

41:                                               ; preds = %26, %21
  %.str.91.sink = phi ptr [ @.str.90, %21 ], [ @.str.91, %26 ]
  %42 = load ptr, ptr @bio_err, align 8, !tbaa !8
  %43 = tail call ptr @opt_getprog() #6
  %44 = tail call i32 (ptr, ptr, ...) @BIO_printf(ptr noundef %42, ptr noundef nonnull %.str.91.sink, ptr noundef %43) #6
  %45 = load ptr, ptr @bio_err, align 8, !tbaa !8
  tail call void @ERR_print_errors(ptr noundef %45) #6
  br label %.preheader.i

.preheader.i:                                     ; preds = %41, %.preheader.i
  %.09.i = phi ptr [ %53, %.preheader.i ], [ %.027, %41 ]
  %46 = getelementptr inbounds nuw i8, ptr %.09.i, i64 40
  %47 = load ptr, ptr %46, align 8, !tbaa !52
  tail call void @X509_free(ptr noundef %47) #6
  %48 = getelementptr inbounds nuw i8, ptr %.09.i, i64 48
  %49 = load ptr, ptr %48, align 8, !tbaa !53
  tail call void @EVP_PKEY_free(ptr noundef %49) #6
  %50 = getelementptr inbounds nuw i8, ptr %.09.i, i64 56
  %51 = load ptr, ptr %50, align 8, !tbaa !54
  tail call void @OSSL_STACK_OF_X509_free(ptr noundef %51) #6
  %52 = getelementptr inbounds nuw i8, ptr %.09.i, i64 72
  %53 = load ptr, ptr %52, align 8, !tbaa !46
  tail call void @CRYPTO_free(ptr noundef nonnull %.09.i, ptr noundef nonnull @.str.26, i32 noundef 1092) #6
  %.not.i13 = icmp eq ptr %53, null
  br i1 %.not.i13, label %ssl_excert_free.exit, label %.preheader.i, !llvm.loop !59

ssl_excert_free.exit:                             ; preds = %.preheader.i
  store ptr null, ptr %1, align 8, !tbaa !60
  br label %54

54:                                               ; preds = %36, %33, %7, %7, %ssl_excert_free.exit, %40
  %.0 = phi i32 [ 1, %40 ], [ 0, %ssl_excert_free.exit ], [ 0, %7 ], [ 0, %7 ], [ 0, %33 ], [ 0, %36 ]
  ret i32 %.0
}